; Function Attrs: nounwind uwtable
define ptr @l_Array_forIn_x27Unsafe_loop___at___private_Lean_Meta_Tactic_Grind_EMatch_0__Lean_Meta_Grind_EMatch_instantiateTheorem___spec__6___boxed(ptr noundef readonly captures(none) %0) local_unnamed_addr #0 {
  %2 = load ptr, ptr %0, align 8, !tbaa !4
  %3 = getelementptr inbounds nuw i8, ptr %0, i64 8
  %4 = load ptr, ptr %3, align 8, !tbaa !4
  %5 = getelementptr inbounds nuw i8, ptr %0, i64 16
  %6 = load ptr, ptr %5, align 8, !tbaa !4
  %7 = getelementptr inbounds nuw i8, ptr %0, i64 24
  %8 = load ptr, ptr %7, align 8, !tbaa !4
  %9 = getelementptr inbounds nuw i8, ptr %0, i64 32
  %10 = load ptr, ptr %9, align 8, !tbaa !4
  %11 = getelementptr inbounds nuw i8, ptr %0, i64 40
  %12 = load ptr, ptr %11, align 8, !tbaa !4
  %13 = getelementptr inbounds nuw i8, ptr %0, i64 48
  %14 = load ptr, ptr %13, align 8, !tbaa !4
  %15 = getelementptr inbounds nuw i8, ptr %0, i64 56
  %16 = load ptr, ptr %15, align 8, !tbaa !4
  %17 = getelementptr inbounds nuw i8, ptr %0, i64 64
  %18 = load ptr, ptr %17, align 8, !tbaa !4
  %19 = getelementptr inbounds nuw i8, ptr %0, i64 72
  %20 = load ptr, ptr %19, align 8, !tbaa !4
  %21 = getelementptr inbounds nuw i8, ptr %0, i64 80
  %22 = load ptr, ptr %21, align 8, !tbaa !4
  %23 = getelementptr inbounds nuw i8, ptr %0, i64 88
  %24 = load ptr, ptr %23, align 8, !tbaa !4
  %25 = getelementptr inbounds nuw i8, ptr %0, i64 96
  %26 = load ptr, ptr %25, align 8, !tbaa !4
  %27 = getelementptr inbounds nuw i8, ptr %0, i64 104
  %28 = load ptr, ptr %27, align 8, !tbaa !4
  %29 = getelementptr inbounds nuw i8, ptr %0, i64 112
  %30 = load ptr, ptr %29, align 8, !tbaa !4
  %31 = getelementptr inbounds nuw i8, ptr %0, i64 120
  %32 = load ptr, ptr %31, align 8, !tbaa !4
  %33 = getelementptr inbounds nuw i8, ptr %0, i64 128
  %34 = load ptr, ptr %33, align 8, !tbaa !4
  %35 = getelementptr inbounds nuw i8, ptr %0, i64 136
  %36 = load ptr, ptr %35, align 8, !tbaa !4
  %37 = getelementptr i8, ptr %10, i64 8
  %.val79 = load i64, ptr %37, align 8, !tbaa !12
  %38 = ptrtoint ptr %10 to i64
  %39 = and i64 %38, 1
  %.not = icmp eq i64 %39, 0
  br i1 %.not, label %40, label %lean_dec.exit58

40:                                               ; preds = %1
  %41 = load i32, ptr %10, align 4, !tbaa !8
  %42 = icmp sgt i32 %41, 1
  br i1 %42, label %43, label %45, !prof !11

43:                                               ; preds = %40
  %44 = add nsw i32 %41, -1
  store i32 %44, ptr %10, align 4, !tbaa !8
  br label %lean_dec.exit58

45:                                               ; preds = %40
  %.not.i = icmp eq i32 %41, 0
  br i1 %.not.i, label %lean_dec.exit58, label %46

46:                                               ; preds = %45
  tail call void @lean_dec_ref_cold(ptr noundef nonnull %10) #5
  br label %lean_dec.exit58

lean_dec.exit58:                                  ; preds = %46, %45, %43, %1
  %47 = getelementptr i8, ptr %12, i64 8
  %.val = load i64, ptr %47, align 8, !tbaa !12
  %48 = ptrtoint ptr %12 to i64
  %49 = and i64 %48, 1
  %.not80 = icmp eq i64 %49, 0
  br i1 %.not80, label %50, label %lean_dec.exit57

50:                                               ; preds = %lean_dec.exit58
  %51 = load i32, ptr %12, align 4, !tbaa !8
  %52 = icmp sgt i32 %51, 1
  br i1 %52, label %53, label %55, !prof !11

53:                                               ; preds = %50
  %54 = add nsw i32 %51, -1
  store i32 %54, ptr %12, align 4, !tbaa !8
  br label %lean_dec.exit57

55:                                               ; preds = %50
  %.not.i59 = icmp eq i32 %51, 0
  br i1 %.not.i59, label %lean_dec.exit57, label %56

56:                                               ; preds = %55
  tail call void @lean_dec_ref_cold(ptr noundef nonnull %12) #5
  br label %lean_dec.exit57

lean_dec.exit57:                                  ; preds = %56, %55, %53, %lean_dec.exit58
  %57 = tail call ptr @l_Array_forIn_x27Unsafe_loop___at___private_Lean_Meta_Tactic_Grind_EMatch_0__Lean_Meta_Grind_EMatch_instantiateTheorem___spec__6(ptr poison, ptr poison, ptr noundef %6, ptr noundef %8, i64 noundef %.val79, i64 noundef %.val, ptr noundef %14, ptr poison, ptr poison, ptr poison, ptr poison, ptr poison, ptr poison, ptr noundef %28, ptr noundef %30, ptr noundef %32, ptr noundef %34, ptr noundef %36)
  %58 = ptrtoint ptr %26 to i64
  %59 = and i64 %58, 1
  %.not81 = icmp eq i64 %59, 0
  br i1 %.not81, label %60, label %lean_dec.exit56

60:                                               ; preds = %lean_dec.exit57
  %61 = load i32, ptr %26, align 4, !tbaa !8
  %62 = icmp sgt i32 %61, 1
  br i1 %62, label %63, label %65, !prof !11

63:                                               ; preds = %60
  %64 = add nsw i32 %61, -1
  store i32 %64, ptr %26, align 4, !tbaa !8
  br label %lean_dec.exit56

65:                                               ; preds = %60
  %.not.i61 = icmp eq i32 %61, 0
  br i1 %.not.i61, label %lean_dec.exit56, label %66

66:                                               ; preds = %65
  tail call void @lean_dec_ref_cold(ptr noundef nonnull %26) #5
  br label %lean_dec.exit56

lean_dec.exit56:                                  ; preds = %66, %65, %63, %lean_dec.exit57
  %67 = ptrtoint ptr %24 to i64
  %68 = and i64 %67, 1
  %.not82 = icmp eq i64 %68, 0
  br i1 %.not82, label %69, label %lean_dec.exit55

69:                                               ; preds = %lean_dec.exit56
  %70 = load i32, ptr %24, align 4, !tbaa !8
  %71 = icmp sgt i32 %70, 1
  br i1 %71, label %72, label %74, !prof !11

72:                                               ; preds = %69
  %73 = add nsw i32 %70, -1
  store i32 %73, ptr %24, align 4, !tbaa !8
  br label %lean_dec.exit55

74:                                               ; preds = %69
  %.not.i63 = icmp eq i32 %70, 0
  br i1 %.not.i63, label %lean_dec.exit55, label %75

75:                                               ; preds = %74
  tail call void @lean_dec_ref_cold(ptr noundef nonnull %24) #5
  br label %lean_dec.exit55

lean_dec.exit55:                                  ; preds = %75, %74, %72, %lean_dec.exit56
  %76 = ptrtoint ptr %22 to i64
  %77 = and i64 %76, 1
  %.not83 = icmp eq i64 %77, 0
  br i1 %.not83, label %78, label %lean_dec.exit54

78:                                               ; preds = %lean_dec.exit55
  %79 = load i32, ptr %22, align 4, !tbaa !8
  %80 = icmp sgt i32 %79, 1
  br i1 %80, label %81, label %83, !prof !11

81:                                               ; preds = %78
  %82 = add nsw i32 %79, -1
  store i32 %82, ptr %22, align 4, !tbaa !8
  br label %lean_dec.exit54

83:                                               ; preds = %78
  %.not.i65 = icmp eq i32 %79, 0
  br i1 %.not.i65, label %lean_dec.exit54, label %84

84:                                               ; preds = %83
  tail call void @lean_dec_ref_cold(ptr noundef nonnull %22) #5
  br label %lean_dec.exit54

lean_dec.exit54:                                  ; preds = %84, %83, %81, %lean_dec.exit55
  %85 = ptrtoint ptr %20 to i64
  %86 = and i64 %85, 1
  %.not84 = icmp eq i64 %86, 0
  br i1 %.not84, label %87, label %lean_dec.exit53

87:                                               ; preds = %lean_dec.exit54
  %88 = load i32, ptr %20, align 4, !tbaa !8
  %89 = icmp sgt i32 %88, 1
  br i1 %89, label %90, label %92, !prof !11

90:                                               ; preds = %87
  %91 = add nsw i32 %88, -1
  store i32 %91, ptr %20, align 4, !tbaa !8
  br label %lean_dec.exit53

92:                                               ; preds = %87
  %.not.i67 = icmp eq i32 %88, 0
  br i1 %.not.i67, label %lean_dec.exit53, label %93

93:                                               ; preds = %92
  tail call void @lean_dec_ref_cold(ptr noundef nonnull %20) #5
  br label %lean_dec.exit53

lean_dec.exit53:                                  ; preds = %93, %92, %90, %lean_dec.exit54
  %94 = ptrtoint ptr %18 to i64
  %95 = and i64 %94, 1
  %.not85 = icmp eq i64 %95, 0
  br i1 %.not85, label %96, label %lean_dec.exit52

96:                                               ; preds = %lean_dec.exit53
  %97 = load i32, ptr %18, align 4, !tbaa !8
  %98 = icmp sgt i32 %97, 1
  br i1 %98, label %99, label %101, !prof !11

99:                                               ; preds = %96
  %100 = add nsw i32 %97, -1
  store i32 %100, ptr %18, align 4, !tbaa !8
  br label %lean_dec.exit52

101:                                              ; preds = %96
  %.not.i69 = icmp eq i32 %97, 0
  br i1 %.not.i69, label %lean_dec.exit52, label %102

102:                                              ; preds = %101
  tail call void @lean_dec_ref_cold(ptr noundef nonnull %18) #5
  br label %lean_dec.exit52

lean_dec.exit52:                                  ; preds = %102, %101, %99, %lean_dec.exit53
  %103 = ptrtoint ptr %16 to i64
  %104 = and i64 %103, 1
  %.not86 = icmp eq i64 %104, 0
  br i1 %.not86, label %105, label %lean_dec.exit51

105:                                              ; preds = %lean_dec.exit52
  %106 = load i32, ptr %16, align 4, !tbaa !8
  %107 = icmp sgt i32 %106, 1
  br i1 %107, label %108, label %110, !prof !11

108:                                              ; preds = %105
  %109 = add nsw i32 %106, -1
  store i32 %109, ptr %16, align 4, !tbaa !8
  br label %lean_dec.exit51

110:                                              ; preds = %105
  %.not.i71 = icmp eq i32 %106, 0
  br i1 %.not.i71, label %lean_dec.exit51, label %111

111:                                              ; preds = %110
  tail call void @lean_dec_ref_cold(ptr noundef nonnull %16) #5
  br label %lean_dec.exit51

lean_dec.exit51:                                  ; preds = %111, %110, %108, %lean_dec.exit52
  %112 = ptrtoint ptr %8 to i64
  %113 = and i64 %112, 1
  %.not87 = icmp eq i64 %113, 0
  br i1 %.not87, label %114, label %lean_dec.exit50

114:                                              ; preds = %lean_dec.exit51
  %115 = load i32, ptr %8, align 4, !tbaa !8
  %116 = icmp sgt i32 %115, 1
  br i1 %116, label %117, label %119, !prof !11

117:                                              ; preds = %114
  %118 = add nsw i32 %115, -1
  store i32 %118, ptr %8, align 4, !tbaa !8
  br label %lean_dec.exit50

119:                                              ; preds = %114
  %.not.i73 = icmp eq i32 %115, 0
  br i1 %.not.i73, label %lean_dec.exit50, label %120

120:                                              ; preds = %119
  tail call void @lean_dec_ref_cold(ptr noundef nonnull %8) #5
  br label %lean_dec.exit50

lean_dec.exit50:                                  ; preds = %120, %119, %117, %lean_dec.exit51
  %121 = ptrtoint ptr %4 to i64
  %122 = and i64 %121, 1
  %.not88 = icmp eq i64 %122, 0
  br i1 %.not88, label %123, label %lean_dec.exit49

123:                                              ; preds = %lean_dec.exit50
  %124 = load i32, ptr %4, align 4, !tbaa !8
  %125 = icmp sgt i32 %124, 1
  br i1 %125, label %126, label %128, !prof !11

126:                                              ; preds = %123
  %127 = add nsw i32 %124, -1
  store i32 %127, ptr %4, align 4, !tbaa !8
  br label %lean_dec.exit49

128:                                              ; preds = %123
  %.not.i75 = icmp eq i32 %124, 0
  br i1 %.not.i75, label %lean_dec.exit49, label %129

129:                                              ; preds = %128
  tail call void @lean_dec_ref_cold(ptr noundef nonnull %4) #5
  br label %lean_dec.exit49

lean_dec.exit49:                                  ; preds = %129, %128, %126, %lean_dec.exit50
  %130 = ptrtoint ptr %2 to i64
  %131 = and i64 %130, 1
  %.not89 = icmp eq i64 %131, 0
  br i1 %.not89, label %132, label %lean_dec.exit

132:                                              ; preds = %lean_dec.exit49
  %133 = load i32, ptr %2, align 4, !tbaa !8
  %134 = icmp sgt i32 %133, 1
  br i1 %134, label %135, label %137, !prof !11

135:                                              ; preds = %132
  %136 = add nsw i32 %133, -1
  store i32 %136, ptr %2, align 4, !tbaa !8
  br label %lean_dec.exit

137:                                              ; preds = %132
  %.not.i77 = icmp eq i32 %133, 0
  br i1 %.not.i77, label %lean_dec.exit, label %138

138:                                              ; preds = %137
  tail call void @lean_dec_ref_cold(ptr noundef nonnull %2) #5
  br label %lean_dec.exit

lean_dec.exit:                                    ; preds = %138, %137, %135, %lean_dec.exit49
  ret ptr %57
}